target datalayout = "e-m:e-p270:32:32-p271:32:32-p272:64:64-i64:64-i128:128-f80:128-n8:16:32:64-S128"
target triple = "x86_64-pc-linux-gnu"

%struct.yyguts_t = type { ptr, ptr, ptr, i64, i64, ptr, i8, i32, i32, ptr, i32, i32, i32, i32, i32, ptr, i32, ptr, i32, i32, ptr, i32, i32, ptr }
%union.YYSTYPE = type { i64 }

@last_was_newline = internal global i8 0, align 1
@expr_start_offset = internal global i32 0, align 4
@expr_source = internal global ptr null, align 8
@expr_lineno = internal global i32 0, align 4
@expr_command = internal global ptr null, align 8

; Function Attrs: nounwind uwtable
define dso_local ptr @expr_yyget_extra(ptr noundef %0) #0 {
  %2 = alloca ptr, align 8
  %3 = alloca ptr, align 8
  store ptr %0, ptr %2, align 8
  call void @llvm.lifetime.start.p0(i64 8, ptr %3) #13
  %4 = load ptr, ptr %2, align 8
  store ptr %4, ptr %3, align 8
  %5 = load ptr, ptr %3, align 8
  %6 = getelementptr inbounds nuw %struct.yyguts_t, ptr %5, i32 0, i32 0
  %7 = load ptr, ptr %6, align 8
  call void @llvm.lifetime.end.p0(i64 8, ptr %3) #13
  ret ptr %7
}

; Function Attrs: noreturn nounwind uwtable
define dso_local void @expr_yyerror_more(ptr noundef %0, ptr noundef %1, ptr noundef %2) #3 {
  %4 = alloca ptr, align 8
  %5 = alloca ptr, align 8
  %6 = alloca ptr, align 8
  %7 = alloca ptr, align 8
  %8 = alloca i32, align 4
  %9 = alloca %union.YYSTYPE, align 8
  %10 = alloca ptr, align 8
  store ptr %0, ptr %4, align 8
  store ptr %1, ptr %5, align 8
  store ptr %2, ptr %6, align 8
  call void @llvm.lifetime.start.p0(i64 8, ptr %7) #13
  %11 = load ptr, ptr %4, align 8
  %12 = call ptr @expr_yyget_extra(ptr noundef %11)
  store ptr %12, ptr %7, align 8
  call void @llvm.lifetime.start.p0(i64 4, ptr %8) #13
  %13 = load ptr, ptr %7, align 8
  %14 = call i32 @expr_scanner_offset(ptr noundef %13)
  %15 = sub i32 %14, 1
  store i32 %15, ptr %8, align 4
  call void @llvm.lifetime.start.p0(i64 8, ptr %9) #13
  call void @llvm.lifetime.start.p0(i64 8, ptr %10) #13
  %16 = load i8, ptr @last_was_newline, align 1, !range !7, !noundef !8
  %17 = trunc i8 %16 to i1
  br i1 %17, label %25, label %18

18:                                               ; preds = %3
  br label %19

19:                                               ; preds = %23, %18
  %20 = load ptr, ptr %4, align 8
  %21 = call i32 @expr_yylex(ptr noundef %9, ptr noundef %20)
  %22 = icmp ne i32 %21, 0
  br i1 %22, label %23, label %24

23:                                               ; preds = %19
  br label %19, !llvm.loop !9

24:                                               ; preds = %19
  br label %25

25:                                               ; preds = %24, %3
  %26 = load ptr, ptr %7, align 8
  %27 = load i32, ptr @expr_start_offset, align 4
  %28 = load ptr, ptr %7, align 8
  %29 = call i32 @expr_scanner_offset(ptr noundef %28)
  %30 = call ptr @expr_scanner_get_substring(ptr noundef %26, i32 noundef %27, i32 noundef %29, i1 noundef zeroext true)
  store ptr %30, ptr %10, align 8
  %31 = load ptr, ptr @expr_source, align 8
  %32 = load i32, ptr @expr_lineno, align 4
  %33 = load ptr, ptr %10, align 8
  %34 = load ptr, ptr @expr_command, align 8
  %35 = load ptr, ptr %5, align 8
  %36 = load ptr, ptr %6, align 8
  %37 = load i32, ptr %8, align 4
  %38 = load i32, ptr @expr_start_offset, align 4
  %39 = sub i32 %37, %38
  call void @syntax_error(ptr noundef %31, i32 noundef %32, ptr noundef %33, ptr noundef %34, ptr noundef %35, ptr noundef %36, i32 noundef %39) #14
  unreachable
}