; Function Attrs: noreturn nounwind uwtable
define dso_local void @expr_yyerror_more(ptr noundef %0, ptr noundef %1, ptr noundef %2) local_unnamed_addr #3 {
  %4 = alloca %union.YYSTYPE, align 8
  %5 = load ptr, ptr %0, align 8
  %6 = getelementptr inbounds nuw i8, ptr %5, i64 32
  %7 = load ptr, ptr %6, align 8
  %8 = tail call i64 @strlen(ptr noundef nonnull dereferenceable(1) %7) #34
  call void @llvm.lifetime.start.p0(i64 8, ptr nonnull %4) #32
  %.b8 = load i1, ptr @last_was_newline, align 1
  br i1 %.b8, label %.loopexit, label %.preheader

.preheader:                                       ; preds = %3, %.preheader
  %9 = call i32 @expr_yylex(ptr noundef nonnull %4, ptr noundef nonnull %0)
  %.not = icmp eq i32 %9, 0
  br i1 %.not, label %.loopexit, label %.preheader, !llvm.loop !14

.loopexit:                                        ; preds = %.preheader, %3
  %10 = trunc i64 %8 to i32
  %11 = load i32, ptr @expr_start_offset, align 4
  %12 = call i32 @expr_scanner_offset(ptr noundef %5)
  %13 = call ptr @expr_scanner_get_substring(ptr noundef %5, i32 noundef %11, i32 noundef %12, i1 noundef zeroext true)
  %14 = load ptr, ptr @expr_source, align 8
  %15 = load i32, ptr @expr_lineno, align 4
  %16 = load ptr, ptr @expr_command, align 8
  %17 = load i32, ptr @expr_start_offset, align 4
  %18 = xor i32 %17, -1
  %19 = add i32 %18, %10
  call void @syntax_error(ptr noundef %14, i32 noundef %15, ptr noundef %13, ptr noundef %16, ptr noundef %1, ptr noundef %2, i32 noundef %19) #35
  unreachable
}